; ModuleID = '29/1739.c'
source_filename = "29/1739.c"
target datalayout = "e-m:e-p270:32:32-p271:32:32-p272:64:64-i64:64-f80:128-n8:16:32:64-S128"
target triple = "x86_64-pc-linux-gnu"

@.str = private unnamed_addr constant [3 x i8] c"%d\00", align 1
@.str.1 = private unnamed_addr constant [6 x i8] c"%.3f\0A\00", align 1

; Function Attrs: noinline nounwind uwtable
define dso_local i32 @fab(i32 %0) #0 {
  %2 = alloca i32, align 4
  %3 = alloca i32, align 4
  store i32 %0, i32* %3, align 4
  %4 = load i32, i32* %3, align 4
  %5 = icmp sge i32 %4, 2
  br i1 %5, label %6, label %14

6:                                                ; preds = %1
  %7 = load i32, i32* %3, align 4
  %8 = sub nsw i32 %7, 1
  %9 = call i32 @fab(i32 %8)
  %10 = load i32, i32* %3, align 4
  %11 = sub nsw i32 %10, 2
  %12 = call i32 @fab(i32 %11)
  %13 = add nsw i32 %9, %12
  store i32 %13, i32* %2, align 4
  br label %24

14:                                               ; preds = %1
  %15 = load i32, i32* %3, align 4
  %16 = icmp eq i32 %15, 1
  br i1 %16, label %17, label %18

17:                                               ; preds = %14
  store i32 1, i32* %2, align 4
  br label %24

18:                                               ; preds = %14
  %19 = load i32, i32* %3, align 4
  %20 = icmp eq i32 %19, 0
  br i1 %20, label %21, label %22

21:                                               ; preds = %18
  store i32 1, i32* %2, align 4
  br label %24

22:                                               ; preds = %18
  br label %23

23:                                               ; preds = %22
  br label %24

24:                                               ; preds = %6, %17, %21, %23
  %25 = load i32, i32* %2, align 4
  ret i32 %25
}

; Function Attrs: noinline nounwind uwtable
define dso_local i32 @main() #0 {
  %1 = alloca i32, align 4
  %2 = alloca i32, align 4
  %3 = alloca i32, align 4
  %4 = alloca i32, align 4
  %5 = alloca i32, align 4
  %6 = alloca [100 x float], align 16
  store i32 0, i32* %1, align 4
  %7 = bitcast [100 x float]* %6 to i8*
  call void @llvm.memset.p0i8.i64(i8* align 16 %7, i8 0, i64 400, i1 false)
  %8 = call i32 (i8*, ...) @__isoc99_scanf(i8* getelementptr inbounds ([3 x i8], [3 x i8]* @.str, i64 0, i64 0), i32* %2)
  store i32 0, i32* %4, align 4
  br label %9

9:                                                ; preds = %41, %0
  %10 = load i32, i32* %4, align 4
  %11 = load i32, i32* %2, align 4
  %12 = icmp slt i32 %10, %11
  br i1 %12, label %13, label %44

13:                                               ; preds = %9
  %14 = call i32 (i8*, ...) @__isoc99_scanf(i8* getelementptr inbounds ([3 x i8], [3 x i8]* @.str, i64 0, i64 0), i32* %3)
  store i32 0, i32* %5, align 4
  br label %15

15:                                               ; preds = %37, %13
  %16 = load i32, i32* %5, align 4
  %17 = load i32, i32* %3, align 4
  %18 = icmp slt i32 %16, %17
  br i1 %18, label %19, label %40

19:                                               ; preds = %15
  %20 = load i32, i32* %4, align 4
  %21 = sext i32 %20 to i64
  %22 = getelementptr inbounds [100 x float], [100 x float]* %6, i64 0, i64 %21
  %23 = load float, float* %22, align 4
  %24 = load i32, i32* %5, align 4
  %25 = add nsw i32 %24, 2
  %26 = call i32 @fab(i32 %25)
  %27 = sitofp i32 %26 to float
  %28 = load i32, i32* %5, align 4
  %29 = add nsw i32 %28, 1
  %30 = call i32 @fab(i32 %29)
  %31 = sitofp i32 %30 to float
  %32 = fdiv float %27, %31
  %33 = fadd float %23, %32
  %34 = load i32, i32* %4, align 4
  %35 = sext i32 %34 to i64
  %36 = getelementptr inbounds [100 x float], [100 x float]* %6, i64 0, i64 %35
  store float %33, float* %36, align 4
  br label %37

37:                                               ; preds = %19
  %38 = load i32, i32* %5, align 4
  %39 = add nsw i32 %38, 1
  store i32 %39, i32* %5, align 4
  br label %15

40:                                               ; preds = %15
  br label %41

41:                                               ; preds = %40
  %42 = load i32, i32* %4, align 4
  %43 = add nsw i32 %42, 1
  store i32 %43, i32* %4, align 4
  br label %9

44:                                               ; preds = %9
  store i32 0, i32* %4, align 4
  br label %45

45:                                               ; preds = %56, %44
  %46 = load i32, i32* %4, align 4
  %47 = load i32, i32* %2, align 4
  %48 = icmp slt i32 %46, %47
  br i1 %48, label %49, label %59

49:                                               ; preds = %45
  %50 = load i32, i32* %4, align 4
  %51 = sext i32 %50 to i64
  %52 = getelementptr inbounds [100 x float], [100 x float]* %6, i64 0, i64 %51
  %53 = load float, float* %52, align 4
  %54 = fpext float %53 to double
  %55 = call i32 (i8*, ...) @printf(i8* getelementptr inbounds ([6 x i8], [6 x i8]* @.str.1, i64 0, i64 0), double %54)
  br label %56

56:                                               ; preds = %49
  %57 = load i32, i32* %4, align 4
  %58 = add nsw i32 %57, 1
  store i32 %58, i32* %4, align 4
  br label %45

59:                                               ; preds = %45
  ret i32 0
}

; Function Attrs: argmemonly nounwind willreturn
declare void @llvm.memset.p0i8.i64(i8* nocapture writeonly, i8, i64, i1 immarg) #1

declare dso_local i32 @__isoc99_scanf(i8*, ...) #2

declare dso_local i32 @printf(i8*, ...) #2


!llvm.module.flags = !{!0}
!llvm.ident = !{!1}

!0 = !{i32 1, !"wchar_size", i32 4}
!1 = !{!"clang version 10.0.0-4ubuntu1 "}
