; ModuleID = 'source-C-CXX/28/1739.c'
source_filename = "source-C-CXX/28/1739.c"
target datalayout = "e-m:e-p270:32:32-p271:32:32-p272:64:64-i64:64-f80:128-n8:16:32:64-S128"
target triple = "x86_64-pc-linux-gnu"

@.str = private unnamed_addr constant [3 x i8] c"%d\00", align 1
@.str.1 = private unnamed_addr constant [6 x i8] c"%.3f\0A\00", align 1

; Function Attrs: nofree nosync nounwind readnone sspstrong uwtable
define dso_local i32 @fab(i32 %0) local_unnamed_addr #0 {
  %2 = icmp sgt i32 %0, 1
  br i1 %2, label %3, label %13

3:                                                ; preds = %1, %3
  %4 = phi i32 [ %8, %3 ], [ %0, %1 ]
  %5 = phi i32 [ %9, %3 ], [ 0, %1 ]
  %6 = add nsw i32 %4, -1
  %7 = tail call i32 @fab(i32 %6)
  %8 = add nsw i32 %4, -2
  %9 = add nsw i32 %7, %5
  %10 = icmp sgt i32 %4, 3
  br i1 %10, label %3, label %11

11:                                               ; preds = %3
  %12 = add i32 %9, 1
  br label %13

13:                                               ; preds = %11, %1
  %14 = phi i32 [ 1, %1 ], [ %12, %11 ]
  ret i32 %14
}

; Function Attrs: nofree nounwind sspstrong uwtable
define dso_local i32 @main() local_unnamed_addr #1 {
  %1 = alloca i32, align 4
  %2 = alloca i32, align 4
  %3 = alloca [100 x float], align 16
  %4 = bitcast i32* %1 to i8*
  call void @llvm.lifetime.start.p0i8(i64 4, i8* nonnull %4) #5
  %5 = bitcast i32* %2 to i8*
  call void @llvm.lifetime.start.p0i8(i64 4, i8* nonnull %5) #5
  %6 = bitcast [100 x float]* %3 to i8*
  call void @llvm.lifetime.start.p0i8(i64 400, i8* nonnull %6) #5
  call void @llvm.memset.p0i8.i64(i8* noundef nonnull align 16 dereferenceable(400) %6, i8 0, i64 400, i1 false)
  %7 = call i32 (i8*, ...) @__isoc99_scanf(i8* getelementptr inbounds ([3 x i8], [3 x i8]* @.str, i64 0, i64 0), i32* nonnull %1)
  %8 = load i32, i32* %1, align 4, !tbaa !5
  %9 = icmp sgt i32 %8, 0
  br i1 %9, label %12, label %48

10:                                               ; preds = %33
  %11 = icmp sgt i32 %35, 0
  br i1 %11, label %38, label %48

12:                                               ; preds = %0, %33
  %13 = phi i64 [ %34, %33 ], [ 0, %0 ]
  %14 = call i32 (i8*, ...) @__isoc99_scanf(i8* getelementptr inbounds ([3 x i8], [3 x i8]* @.str, i64 0, i64 0), i32* nonnull %2)
  %15 = load i32, i32* %2, align 4, !tbaa !5
  %16 = getelementptr inbounds [100 x float], [100 x float]* %3, i64 0, i64 %13
  %17 = icmp sgt i32 %15, 0
  br i1 %17, label %18, label %33

18:                                               ; preds = %12
  %19 = load float, float* %16, align 4, !tbaa !9
  br label %20

20:                                               ; preds = %18, %20
  %21 = phi float [ %19, %18 ], [ %30, %20 ]
  %22 = phi i32 [ 0, %18 ], [ %26, %20 ]
  %23 = add nuw nsw i32 %22, 2
  %24 = call i32 @fab(i32 %23)
  %25 = sitofp i32 %24 to float
  %26 = add nuw nsw i32 %22, 1
  %27 = call i32 @fab(i32 %26)
  %28 = sitofp i32 %27 to float
  %29 = fdiv float %25, %28
  %30 = fadd float %21, %29
  %31 = icmp eq i32 %26, %15
  br i1 %31, label %32, label %20, !llvm.loop !11

32:                                               ; preds = %20
  store float %30, float* %16, align 4, !tbaa !9
  br label %33

33:                                               ; preds = %32, %12
  %34 = add nuw nsw i64 %13, 1
  %35 = load i32, i32* %1, align 4, !tbaa !5
  %36 = sext i32 %35 to i64
  %37 = icmp slt i64 %34, %36
  br i1 %37, label %12, label %10, !llvm.loop !13

38:                                               ; preds = %10, %38
  %39 = phi i64 [ %44, %38 ], [ 0, %10 ]
  %40 = getelementptr inbounds [100 x float], [100 x float]* %3, i64 0, i64 %39
  %41 = load float, float* %40, align 4, !tbaa !9
  %42 = fpext float %41 to double
  %43 = call i32 (i8*, ...) @printf(i8* nonnull dereferenceable(1) getelementptr inbounds ([6 x i8], [6 x i8]* @.str.1, i64 0, i64 0), double %42)
  %44 = add nuw nsw i64 %39, 1
  %45 = load i32, i32* %1, align 4, !tbaa !5
  %46 = sext i32 %45 to i64
  %47 = icmp slt i64 %44, %46
  br i1 %47, label %38, label %48, !llvm.loop !14

48:                                               ; preds = %38, %0, %10
  call void @llvm.lifetime.end.p0i8(i64 400, i8* nonnull %6) #5
  call void @llvm.lifetime.end.p0i8(i64 4, i8* nonnull %5) #5
  call void @llvm.lifetime.end.p0i8(i64 4, i8* nonnull %4) #5
  ret i32 0
}

; Function Attrs: argmemonly mustprogress nofree nosync nounwind willreturn
declare void @llvm.lifetime.start.p0i8(i64 immarg, i8* nocapture) #2

; Function Attrs: argmemonly mustprogress nofree nounwind willreturn writeonly
declare void @llvm.memset.p0i8.i64(i8* nocapture writeonly, i8, i64, i1 immarg) #3

; Function Attrs: nofree nounwind
declare noundef i32 @__isoc99_scanf(i8* nocapture noundef readonly, ...) local_unnamed_addr #4

; Function Attrs: nofree nounwind
declare noundef i32 @printf(i8* nocapture noundef readonly, ...) local_unnamed_addr #4

; Function Attrs: argmemonly mustprogress nofree nosync nounwind willreturn
declare void @llvm.lifetime.end.p0i8(i64 immarg, i8* nocapture) #2


!llvm.module.flags = !{!0, !1, !2, !3}
!llvm.ident = !{!4}

!0 = !{i32 1, !"wchar_size", i32 4}
!1 = !{i32 7, !"PIC Level", i32 2}
!2 = !{i32 7, !"PIE Level", i32 2}
!3 = !{i32 7, !"uwtable", i32 1}
!4 = !{!"clang version 13.0.0"}
!5 = !{!6, !6, i64 0}
!6 = !{!"int", !7, i64 0}
!7 = !{!"omnipotent char", !8, i64 0}
!8 = !{!"Simple C/C++ TBAA"}
!9 = !{!10, !10, i64 0}
!10 = !{!"float", !7, i64 0}
!11 = distinct !{!11, !12}
!12 = !{!"llvm.loop.mustprogress"}
!13 = distinct !{!13, !12}
!14 = distinct !{!14, !12}
